target datalayout = "e-m:e-p270:32:32-p271:32:32-p272:64:64-i64:64-i128:128-f80:128-n8:16:32:64-S128"
target triple = "x86_64-pc-linux-gnu"

%struct.Vec_Wrd_t_ = type { i32, i32, ptr }

; Function Attrs: inlinehint nounwind uwtable
define internal void @Vec_WrdShrink(ptr noundef %0, i32 noundef %1) #2 {
  %3 = alloca ptr, align 8
  %4 = alloca i32, align 4
  store ptr %0, ptr %3, align 8, !tbaa !85
  store i32 %1, ptr %4, align 4, !tbaa !10
  %5 = load i32, ptr %4, align 4, !tbaa !10
  %6 = load ptr, ptr %3, align 8, !tbaa !85
  %7 = getelementptr inbounds nuw %struct.Vec_Wrd_t_, ptr %6, i32 0, i32 1
  store i32 %5, ptr %7, align 4, !tbaa !86
  ret void
}

; Function Attrs: inlinehint nounwind uwtable
define internal void @Abc_TtCopy(ptr noundef %0, ptr noundef %1, i32 noundef %2, i32 noundef %3) #2 {
  %5 = alloca ptr, align 8
  %6 = alloca ptr, align 8
  %7 = alloca i32, align 4
  %8 = alloca i32, align 4
  %9 = alloca i32, align 4
  store ptr %0, ptr %5, align 8, !tbaa !76
  store ptr %1, ptr %6, align 8, !tbaa !76
  store i32 %2, ptr %7, align 4, !tbaa !10
  store i32 %3, ptr %8, align 4, !tbaa !10
  call void @llvm.lifetime.start.p0(i64 4, ptr %9) #14
  %10 = load i32, ptr %8, align 4, !tbaa !10
  %11 = icmp ne i32 %10, 0
  br i1 %11, label %12, label %32

12:                                               ; preds = %4
  store i32 0, ptr %9, align 4, !tbaa !10
  br label %13

13:                                               ; preds = %28, %12
  %14 = load i32, ptr %9, align 4, !tbaa !10
  %15 = load i32, ptr %7, align 4, !tbaa !10
  %16 = icmp slt i32 %14, %15
  br i1 %16, label %17, label %31

17:                                               ; preds = %13
  %18 = load ptr, ptr %6, align 8, !tbaa !76
  %19 = load i32, ptr %9, align 4, !tbaa !10
  %20 = sext i32 %19 to i64
  %21 = getelementptr inbounds i64, ptr %18, i64 %20
  %22 = load i64, ptr %21, align 8, !tbaa !65
  %23 = xor i64 %22, -1
  %24 = load ptr, ptr %5, align 8, !tbaa !76
  %25 = load i32, ptr %9, align 4, !tbaa !10
  %26 = sext i32 %25 to i64
  %27 = getelementptr inbounds i64, ptr %24, i64 %26
  store i64 %23, ptr %27, align 8, !tbaa !65
  br label %28

28:                                               ; preds = %17
  %29 = load i32, ptr %9, align 4, !tbaa !10
  %30 = add nsw i32 %29, 1
  store i32 %30, ptr %9, align 4, !tbaa !10
  br label %13, !llvm.loop !97

31:                                               ; preds = %13
  br label %51

32:                                               ; preds = %4
  store i32 0, ptr %9, align 4, !tbaa !10
  br label %33

33:                                               ; preds = %47, %32
  %34 = load i32, ptr %9, align 4, !tbaa !10
  %35 = load i32, ptr %7, align 4, !tbaa !10
  %36 = icmp slt i32 %34, %35
  br i1 %36, label %37, label %50

37:                                               ; preds = %33
  %38 = load ptr, ptr %6, align 8, !tbaa !76
  %39 = load i32, ptr %9, align 4, !tbaa !10
  %40 = sext i32 %39 to i64
  %41 = getelementptr inbounds i64, ptr %38, i64 %40
  %42 = load i64, ptr %41, align 8, !tbaa !65
  %43 = load ptr, ptr %5, align 8, !tbaa !76
  %44 = load i32, ptr %9, align 4, !tbaa !10
  %45 = sext i32 %44 to i64
  %46 = getelementptr inbounds i64, ptr %43, i64 %45
  store i64 %42, ptr %46, align 8, !tbaa !65
  br label %47

47:                                               ; preds = %37
  %48 = load i32, ptr %9, align 4, !tbaa !10
  %49 = add nsw i32 %48, 1
  store i32 %49, ptr %9, align 4, !tbaa !10
  br label %33, !llvm.loop !98

50:                                               ; preds = %33
  br label %51

51:                                               ; preds = %50, %31
  call void @llvm.lifetime.end.p0(i64 4, ptr %9) #14
  ret void
}

; Function Attrs: inlinehint nounwind uwtable
define internal i32 @Abc_TtIsConst0(ptr noundef %0, i32 noundef %1) #2 {
  %3 = alloca i32, align 4
  %4 = alloca ptr, align 8
  %5 = alloca i32, align 4
  %6 = alloca i32, align 4
  %7 = alloca i32, align 4
  store ptr %0, ptr %4, align 8, !tbaa !76
  store i32 %1, ptr %5, align 4, !tbaa !10
  call void @llvm.lifetime.start.p0(i64 4, ptr %6) #14
  store i32 0, ptr %6, align 4, !tbaa !10
  br label %8

8:                                                ; preds = %21, %2
  %9 = load i32, ptr %6, align 4, !tbaa !10
  %10 = load i32, ptr %5, align 4, !tbaa !10
  %11 = icmp slt i32 %9, %10
  br i1 %11, label %12, label %24

12:                                               ; preds = %8
  %13 = load ptr, ptr %4, align 8, !tbaa !76
  %14 = load i32, ptr %6, align 4, !tbaa !10
  %15 = sext i32 %14 to i64
  %16 = getelementptr inbounds i64, ptr %13, i64 %15
  %17 = load i64, ptr %16, align 8, !tbaa !65
  %18 = icmp ne i64 %17, 0
  br i1 %18, label %19, label %20

19:                                               ; preds = %12
  store i32 0, ptr %3, align 4
  store i32 1, ptr %7, align 4
  br label %25

20:                                               ; preds = %12
  br label %21

21:                                               ; preds = %20
  %22 = load i32, ptr %6, align 4, !tbaa !10
  %23 = add nsw i32 %22, 1
  store i32 %23, ptr %6, align 4, !tbaa !10
  br label %8, !llvm.loop !103

24:                                               ; preds = %8
  store i32 1, ptr %3, align 4
  store i32 1, ptr %7, align 4
  br label %25

25:                                               ; preds = %24, %19
  call void @llvm.lifetime.end.p0(i64 4, ptr %6) #14
  %26 = load i32, ptr %3, align 4
  ret i32 %26
}

; Function Attrs: inlinehint nounwind uwtable
define internal ptr @Vec_WrdEntryP(ptr noundef %0, i32 noundef %1) #2 {
  %3 = alloca ptr, align 8
  %4 = alloca i32, align 4
  store ptr %0, ptr %3, align 8, !tbaa !85
  store i32 %1, ptr %4, align 4, !tbaa !10
  %5 = load ptr, ptr %3, align 8, !tbaa !85
  %6 = getelementptr inbounds nuw %struct.Vec_Wrd_t_, ptr %5, i32 0, i32 2
  %7 = load ptr, ptr %6, align 8, !tbaa !89
  %8 = load i32, ptr %4, align 4, !tbaa !10
  %9 = sext i32 %8 to i64
  %10 = getelementptr inbounds i64, ptr %7, i64 %9
  ret ptr %10
}

; Function Attrs: inlinehint nounwind uwtable
define internal i32 @Vec_WrdSize(ptr noundef %0) #2 {
  %2 = alloca ptr, align 8
  store ptr %0, ptr %2, align 8, !tbaa !85
  %3 = load ptr, ptr %2, align 8, !tbaa !85
  %4 = getelementptr inbounds nuw %struct.Vec_Wrd_t_, ptr %3, i32 0, i32 1
  %5 = load i32, ptr %4, align 4, !tbaa !86
  ret i32 %5
}

; Function Attrs: nounwind uwtable
define i32 @Gia_ManDeriveShrink(ptr noundef %0, i32 noundef %1) #0 {
  %3 = alloca ptr, align 8
  %4 = alloca i32, align 4
  %5 = alloca i32, align 4
  %6 = alloca i32, align 4
  %7 = alloca i32, align 4
  %8 = alloca ptr, align 8
  %9 = alloca ptr, align 8
  %10 = alloca i32, align 4
  store ptr %0, ptr %3, align 8, !tbaa !85
  store i32 %1, ptr %4, align 4, !tbaa !10
  call void @llvm.lifetime.start.p0(i64 4, ptr %5) #14
  call void @llvm.lifetime.start.p0(i64 4, ptr %6) #14
  store i32 0, ptr %6, align 4, !tbaa !10
  call void @llvm.lifetime.start.p0(i64 4, ptr %7) #14
  %11 = load ptr, ptr %3, align 8, !tbaa !85
  %12 = call i32 @Vec_WrdSize(ptr noundef %11)
  %13 = load i32, ptr %4, align 4, !tbaa !10
  %14 = sdiv i32 %12, %13
  %15 = sdiv i32 %14, 2
  store i32 %15, ptr %7, align 4, !tbaa !10
  store i32 0, ptr %5, align 4, !tbaa !10
  br label %16

16:                                               ; preds = %79, %2
  %17 = load i32, ptr %5, align 4, !tbaa !10
  %18 = load i32, ptr %7, align 4, !tbaa !10
  %19 = icmp slt i32 %17, %18
  br i1 %19, label %20, label %82

20:                                               ; preds = %16
  call void @llvm.lifetime.start.p0(i64 8, ptr %8) #14
  %21 = load ptr, ptr %3, align 8, !tbaa !85
  %22 = load i32, ptr %5, align 4, !tbaa !10
  %23 = mul nsw i32 2, %22
  %24 = add nsw i32 %23, 0
  %25 = load i32, ptr %4, align 4, !tbaa !10
  %26 = mul nsw i32 %24, %25
  %27 = call ptr @Vec_WrdEntryP(ptr noundef %21, i32 noundef %26)
  store ptr %27, ptr %8, align 8, !tbaa !76
  call void @llvm.lifetime.start.p0(i64 8, ptr %9) #14
  %28 = load ptr, ptr %3, align 8, !tbaa !85
  %29 = load i32, ptr %5, align 4, !tbaa !10
  %30 = mul nsw i32 2, %29
  %31 = add nsw i32 %30, 1
  %32 = load i32, ptr %4, align 4, !tbaa !10
  %33 = mul nsw i32 %31, %32
  %34 = call ptr @Vec_WrdEntryP(ptr noundef %28, i32 noundef %33)
  store ptr %34, ptr %9, align 8, !tbaa !76
  %35 = load ptr, ptr %8, align 8, !tbaa !76
  %36 = load i32, ptr %4, align 4, !tbaa !10
  %37 = call i32 @Abc_TtIsConst0(ptr noundef %35, i32 noundef %36)
  %38 = icmp ne i32 %37, 0
  br i1 %38, label %44, label %39

39:                                               ; preds = %20
  %40 = load ptr, ptr %9, align 8, !tbaa !76
  %41 = load i32, ptr %4, align 4, !tbaa !10
  %42 = call i32 @Abc_TtIsConst0(ptr noundef %40, i32 noundef %41)
  %43 = icmp ne i32 %42, 0
  br i1 %43, label %44, label %45

44:                                               ; preds = %39, %20
  store i32 4, ptr %10, align 4
  br label %76

45:                                               ; preds = %39
  %46 = load i32, ptr %6, align 4, !tbaa !10
  %47 = load i32, ptr %5, align 4, !tbaa !10
  %48 = icmp slt i32 %46, %47
  br i1 %48, label %49, label %59

49:                                               ; preds = %45
  %50 = load ptr, ptr %3, align 8, !tbaa !85
  %51 = load i32, ptr %6, align 4, !tbaa !10
  %52 = mul nsw i32 2, %51
  %53 = add nsw i32 %52, 0
  %54 = load i32, ptr %4, align 4, !tbaa !10
  %55 = mul nsw i32 %53, %54
  %56 = call ptr @Vec_WrdEntryP(ptr noundef %50, i32 noundef %55)
  %57 = load ptr, ptr %8, align 8, !tbaa !76
  %58 = load i32, ptr %4, align 4, !tbaa !10
  call void @Abc_TtCopy(ptr noundef %56, ptr noundef %57, i32 noundef %58, i32 noundef 0)
  br label %59

59:                                               ; preds = %49, %45
  %60 = load i32, ptr %6, align 4, !tbaa !10
  %61 = load i32, ptr %5, align 4, !tbaa !10
  %62 = icmp slt i32 %60, %61
  br i1 %62, label %63, label %73

63:                                               ; preds = %59
  %64 = load ptr, ptr %3, align 8, !tbaa !85
  %65 = load i32, ptr %6, align 4, !tbaa !10
  %66 = mul nsw i32 2, %65
  %67 = add nsw i32 %66, 1
  %68 = load i32, ptr %4, align 4, !tbaa !10
  %69 = mul nsw i32 %67, %68
  %70 = call ptr @Vec_WrdEntryP(ptr noundef %64, i32 noundef %69)
  %71 = load ptr, ptr %9, align 8, !tbaa !76
  %72 = load i32, ptr %4, align 4, !tbaa !10
  call void @Abc_TtCopy(ptr noundef %70, ptr noundef %71, i32 noundef %72, i32 noundef 0)
  br label %73

73:                                               ; preds = %63, %59
  %74 = load i32, ptr %6, align 4, !tbaa !10
  %75 = add nsw i32 %74, 1
  store i32 %75, ptr %6, align 4, !tbaa !10
  store i32 0, ptr %10, align 4
  br label %76

76:                                               ; preds = %73, %44
  call void @llvm.lifetime.end.p0(i64 8, ptr %9) #14
  call void @llvm.lifetime.end.p0(i64 8, ptr %8) #14
  %77 = load i32, ptr %10, align 4
  switch i32 %77, label %89 [
    i32 0, label %78
    i32 4, label %79
  ]

78:                                               ; preds = %76
  br label %79

79:                                               ; preds = %78, %76
  %80 = load i32, ptr %5, align 4, !tbaa !10
  %81 = add nsw i32 %80, 1
  store i32 %81, ptr %5, align 4, !tbaa !10
  br label %16, !llvm.loop !240

82:                                               ; preds = %16
  %83 = load ptr, ptr %3, align 8, !tbaa !85
  %84 = load i32, ptr %6, align 4, !tbaa !10
  %85 = mul nsw i32 2, %84
  %86 = load i32, ptr %4, align 4, !tbaa !10
  %87 = mul nsw i32 %85, %86
  call void @Vec_WrdShrink(ptr noundef %83, i32 noundef %87)
  %88 = load i32, ptr %6, align 4, !tbaa !10
  store i32 1, ptr %10, align 4
  call void @llvm.lifetime.end.p0(i64 4, ptr %7) #14
  call void @llvm.lifetime.end.p0(i64 4, ptr %6) #14
  call void @llvm.lifetime.end.p0(i64 4, ptr %5) #14
  ret i32 %88

89:                                               ; preds = %76
  unreachable
}