; Function Attrs: nofree norecurse nosync nounwind memory(readwrite, inaccessiblemem: none) uwtable
define i32 @Gia_ManDeriveShrink(ptr noundef captures(none) %0, i32 noundef %1) local_unnamed_addr #12 {
  %3 = getelementptr i8, ptr %0, i64 4
  %.val38 = load i32, ptr %3, align 4, !tbaa !81
  %4 = sdiv i32 %.val38, %1
  %5 = sdiv i32 %4, 2
  %6 = icmp sgt i32 %4, 1
  br i1 %6, label %.lr.ph, label %._crit_edge

.lr.ph:                                           ; preds = %2
  %7 = getelementptr i8, ptr %0, i64 8
  %.val37 = load ptr, ptr %7, align 8, !tbaa !84
  %8 = icmp sgt i32 %1, 0
  %wide.trip.count.i = zext i32 %1 to i64
  br i1 %8, label %.lr.ph.preheader.i.us.preheader, label %._crit_edge

.lr.ph.preheader.i.us.preheader:                  ; preds = %.lr.ph
  %wide.trip.count = zext nneg i32 %5 to i64
  br label %.lr.ph.preheader.i.us

.lr.ph.preheader.i.us:                            ; preds = %.lr.ph.preheader.i.us.preheader, %Abc_TtIsConst0.exit.thread.us
  %indvars.iv = phi i64 [ 0, %.lr.ph.preheader.i.us.preheader ], [ %indvars.iv.next, %Abc_TtIsConst0.exit.thread.us ]
  %.03360.us = phi i32 [ 0, %.lr.ph.preheader.i.us.preheader ], [ %.1.us, %Abc_TtIsConst0.exit.thread.us ]
  %9 = shl nuw nsw i64 %indvars.iv, 1
  %10 = mul nuw nsw i64 %9, %wide.trip.count.i
  %11 = getelementptr inbounds nuw i64, ptr %.val37, i64 %10
  %12 = or disjoint i64 %9, 1
  %13 = mul nuw nsw i64 %12, %wide.trip.count.i
  %14 = getelementptr inbounds nuw i64, ptr %.val37, i64 %13
  br label %.lr.ph.i.us

.lr.ph.i.us:                                      ; preds = %37, %.lr.ph.preheader.i.us
  %indvars.iv.i.us = phi i64 [ 0, %.lr.ph.preheader.i.us ], [ %indvars.iv.next.i.us, %37 ]
  %15 = getelementptr inbounds nuw i64, ptr %11, i64 %indvars.iv.i.us
  %16 = load i64, ptr %15, align 8, !tbaa !94
  %.not.i.us = icmp eq i64 %16, 0
  br i1 %.not.i.us, label %37, label %.lr.ph.i42.us

.lr.ph.i42.us:                                    ; preds = %.lr.ph.i.us, %36
  %indvars.iv.i43.us = phi i64 [ %indvars.iv.next.i45.us, %36 ], [ 0, %.lr.ph.i.us ]
  %17 = getelementptr inbounds nuw i64, ptr %14, i64 %indvars.iv.i43.us
  %18 = load i64, ptr %17, align 8, !tbaa !94
  %.not.i44.us = icmp eq i64 %18, 0
  br i1 %.not.i44.us, label %36, label %Abc_TtIsConst0.exit47.us

Abc_TtIsConst0.exit47.us:                         ; preds = %.lr.ph.i42.us
  %19 = sext i32 %.03360.us to i64
  %20 = icmp sgt i64 %indvars.iv, %19
  br i1 %20, label %.lr.ph18.preheader.i.us, label %.critedge.us

.lr.ph18.preheader.i.us:                          ; preds = %Abc_TtIsConst0.exit47.us
  %21 = shl nsw i32 %.03360.us, 1
  %22 = mul nsw i32 %21, %1
  %23 = sext i32 %22 to i64
  %24 = getelementptr inbounds i64, ptr %.val37, i64 %23
  br label %.lr.ph18.i.us

.lr.ph18.i.us:                                    ; preds = %.lr.ph18.i.us, %.lr.ph18.preheader.i.us
  %indvars.iv21.i.us = phi i64 [ 0, %.lr.ph18.preheader.i.us ], [ %indvars.iv.next22.i.us, %.lr.ph18.i.us ]
  %25 = getelementptr inbounds nuw i64, ptr %11, i64 %indvars.iv21.i.us
  %26 = load i64, ptr %25, align 8, !tbaa !94
  %27 = getelementptr inbounds nuw i64, ptr %24, i64 %indvars.iv21.i.us
  store i64 %26, ptr %27, align 8, !tbaa !94
  %indvars.iv.next22.i.us = add nuw nsw i64 %indvars.iv21.i.us, 1
  %exitcond25.not.i.us = icmp eq i64 %indvars.iv.next22.i.us, %wide.trip.count.i
  br i1 %exitcond25.not.i.us, label %Abc_TtCopy.exit.us, label %.lr.ph18.i.us, !llvm.loop !95

Abc_TtCopy.exit.us:                               ; preds = %.lr.ph18.i.us
  %28 = or disjoint i32 %21, 1
  %29 = mul nsw i32 %28, %1
  %30 = sext i32 %29 to i64
  %31 = getelementptr inbounds i64, ptr %.val37, i64 %30
  br label %.lr.ph18.i50.us

.lr.ph18.i50.us:                                  ; preds = %.lr.ph18.i50.us, %Abc_TtCopy.exit.us
  %indvars.iv21.i51.us = phi i64 [ 0, %Abc_TtCopy.exit.us ], [ %indvars.iv.next22.i52.us, %.lr.ph18.i50.us ]
  %32 = getelementptr inbounds nuw i64, ptr %14, i64 %indvars.iv21.i51.us
  %33 = load i64, ptr %32, align 8, !tbaa !94
  %34 = getelementptr inbounds nuw i64, ptr %31, i64 %indvars.iv21.i51.us
  store i64 %33, ptr %34, align 8, !tbaa !94
  %indvars.iv.next22.i52.us = add nuw nsw i64 %indvars.iv21.i51.us, 1
  %exitcond25.not.i53.us = icmp eq i64 %indvars.iv.next22.i52.us, %wide.trip.count.i
  br i1 %exitcond25.not.i53.us, label %.critedge.us, label %.lr.ph18.i50.us, !llvm.loop !95

.critedge.us:                                     ; preds = %.lr.ph18.i50.us, %Abc_TtIsConst0.exit47.us
  %35 = add nsw i32 %.03360.us, 1
  br label %Abc_TtIsConst0.exit.thread.us

36:                                               ; preds = %.lr.ph.i42.us
  %indvars.iv.next.i45.us = add nuw nsw i64 %indvars.iv.i43.us, 1
  %exitcond.not.i46.us = icmp eq i64 %indvars.iv.next.i45.us, %wide.trip.count.i
  br i1 %exitcond.not.i46.us, label %Abc_TtIsConst0.exit.thread.us, label %.lr.ph.i42.us, !llvm.loop !97

37:                                               ; preds = %.lr.ph.i.us
  %indvars.iv.next.i.us = add nuw nsw i64 %indvars.iv.i.us, 1
  %exitcond.not.i.us = icmp eq i64 %indvars.iv.next.i.us, %wide.trip.count.i
  br i1 %exitcond.not.i.us, label %Abc_TtIsConst0.exit.thread.us, label %.lr.ph.i.us, !llvm.loop !97

Abc_TtIsConst0.exit.thread.us:                    ; preds = %37, %36, %.critedge.us
  %.1.us = phi i32 [ %35, %.critedge.us ], [ %.03360.us, %36 ], [ %.03360.us, %37 ]
  %indvars.iv.next = add nuw nsw i64 %indvars.iv, 1
  %exitcond.not = icmp eq i64 %indvars.iv.next, %wide.trip.count
  br i1 %exitcond.not, label %._crit_edge, label %.lr.ph.preheader.i.us, !llvm.loop !216

._crit_edge:                                      ; preds = %Abc_TtIsConst0.exit.thread.us, %.lr.ph, %2
  %.033.lcssa = phi i32 [ 0, %2 ], [ 0, %.lr.ph ], [ %.1.us, %Abc_TtIsConst0.exit.thread.us ]
  %38 = shl i32 %1, 1
  %39 = mul i32 %38, %.033.lcssa
  store i32 %39, ptr %3, align 4, !tbaa !81
  ret i32 %.033.lcssa
}